target datalayout = "e-m:e-p270:32:32-p271:32:32-p272:64:64-i64:64-i128:128-f80:128-n8:16:32:64-S128"
target triple = "x86_64-unknown-linux-gnu"

%"class.icu_75::RuleBasedCollator" = type <{ %"class.icu_75::Collator", ptr, ptr, ptr, ptr, %"class.icu_75::Locale", i32, i8, [3 x i8] }>
%"class.icu_75::Collator" = type { %"class.icu_75::UObject" }
%"class.icu_75::UObject" = type { ptr }
%"class.icu_75::Locale" = type <{ %"class.icu_75::UObject", [12 x i8], [6 x i8], [4 x i8], [2 x i8], i32, [4 x i8], ptr, [157 x i8], [3 x i8], ptr, i8, [7 x i8] }>
%"class.icu_75::SharedObject" = type { %"class.icu_75::UObject", i32, %"struct.std::atomic", ptr }
%"struct.std::atomic" = type { %"struct.std::__atomic_base" }
%"struct.std::__atomic_base" = type { i32 }
%"struct.icu_75::CollationSettings" = type <{ %"class.icu_75::SharedObject", i32, i32, ptr, i32, [4 x i8], ptr, i32, [4 x i8], ptr, i32, i32, i32, [384 x i16], [4 x i8] }>

; Function Attrs: mustprogress nounwind uwtable
define linkonce_odr noundef i32 @_ZN6icu_7517CollationSettings11getStrengthEi(i32 noundef %options) #0 comdat align 2 {
entry:
  %options.addr = alloca i32, align 4
  store i32 %options, ptr %options.addr, align 4
  %0 = load i32, ptr %options.addr, align 4
  %shr = ashr i32 %0, 12
  ret i32 %shr
}

; Function Attrs: mustprogress uwtable
define linkonce_odr noundef i32 @_ZNK6icu_7517CollationSettings11getStrengthEv(ptr noundef nonnull align 8 dereferenceable(852) %this) #1 comdat align 2 {
entry:
  %this.addr = alloca ptr, align 8
  store ptr %this, ptr %this.addr, align 8
  %this1 = load ptr, ptr %this.addr, align 8
  %options = getelementptr inbounds %"struct.icu_75::CollationSettings", ptr %this1, i32 0, i32 1
  %0 = load i32, ptr %options, align 8
  %call = call noundef i32 @_ZN6icu_7517CollationSettings11getStrengthEi(i32 noundef %0)
  ret i32 %call
}

; Function Attrs: mustprogress nounwind uwtable
define linkonce_odr noundef i32 @_ZNK6icu_7517CollationSettings12getCaseFirstEv(ptr noundef nonnull align 8 dereferenceable(852) %this) #0 comdat align 2 {
entry:
  %this.addr = alloca ptr, align 8
  %option = alloca i32, align 4
  store ptr %this, ptr %this.addr, align 8
  %this1 = load ptr, ptr %this.addr, align 8
  %options = getelementptr inbounds %"struct.icu_75::CollationSettings", ptr %this1, i32 0, i32 1
  %0 = load i32, ptr %options, align 8
  %and = and i32 %0, 768
  store i32 %and, ptr %option, align 4
  %1 = load i32, ptr %option, align 4
  %cmp = icmp eq i32 %1, 0
  br i1 %cmp, label %cond.true, label %cond.false

cond.true:                                        ; preds = %entry
  br label %cond.end

cond.false:                                       ; preds = %entry
  %2 = load i32, ptr %option, align 4
  %cmp2 = icmp eq i32 %2, 512
  %cond = select i1 %cmp2, i32 24, i32 25
  br label %cond.end

cond.end:                                         ; preds = %cond.false, %cond.true
  %cond3 = phi i32 [ 16, %cond.true ], [ %cond, %cond.false ]
  ret i32 %cond3
}

; Function Attrs: mustprogress nounwind uwtable
define linkonce_odr noundef i32 @_ZNK6icu_7517CollationSettings20getAlternateHandlingEv(ptr noundef nonnull align 8 dereferenceable(852) %this) #0 comdat align 2 {
entry:
  %this.addr = alloca ptr, align 8
  store ptr %this, ptr %this.addr, align 8
  %this1 = load ptr, ptr %this.addr, align 8
  %options = getelementptr inbounds %"struct.icu_75::CollationSettings", ptr %this1, i32 0, i32 1
  %0 = load i32, ptr %options, align 8
  %and = and i32 %0, 12
  %cmp = icmp eq i32 %and, 0
  %cond = select i1 %cmp, i32 21, i32 20
  ret i32 %cond
}

; Function Attrs: mustprogress nounwind uwtable
define internal noundef signext i8 @_ZL9U_FAILURE10UErrorCode(i32 noundef %code) #0 {
entry:
  %code.addr = alloca i32, align 4
  store i32 %code, ptr %code.addr, align 4
  %0 = load i32, ptr %code.addr, align 4
  %cmp = icmp sgt i32 %0, 0
  %conv = zext i1 %cmp to i8
  ret i8 %conv
}

; Function Attrs: mustprogress uwtable
define noundef i32 @_ZNK6icu_7517RuleBasedCollator12getAttributeE13UColAttributeR10UErrorCode(ptr noundef nonnull align 8 dereferenceable(272) %this, i32 noundef %attr, ptr noundef nonnull align 4 dereferenceable(4) %errorCode) unnamed_addr #1 align 2 {
entry:
  %retval = alloca i32, align 4
  %this.addr = alloca ptr, align 8
  %attr.addr = alloca i32, align 4
  %errorCode.addr = alloca ptr, align 8
  %option = alloca i32, align 4
  store ptr %this, ptr %this.addr, align 8
  store i32 %attr, ptr %attr.addr, align 4
  store ptr %errorCode, ptr %errorCode.addr, align 8
  %this1 = load ptr, ptr %this.addr, align 8
  %0 = load ptr, ptr %errorCode.addr, align 8
  %1 = load i32, ptr %0, align 4
  %call = call noundef signext i8 @_ZL9U_FAILURE10UErrorCode(i32 noundef %1)
  %tobool = icmp ne i8 %call, 0
  br i1 %tobool, label %if.then, label %if.end

if.then:                                          ; preds = %entry
  store i32 -1, ptr %retval, align 4
  br label %return

if.end:                                           ; preds = %entry
  %2 = load i32, ptr %attr.addr, align 4
  switch i32 %2, label %sw.default [
    i32 0, label %sw.bb
    i32 1, label %sw.bb2
    i32 2, label %sw.bb4
    i32 3, label %sw.bb7
    i32 4, label %sw.bb8
    i32 5, label %sw.bb9
    i32 6, label %sw.bb12
    i32 7, label %sw.bb13
  ]

sw.bb:                                            ; preds = %if.end
  store i32 2048, ptr %option, align 4
  br label %sw.epilog

sw.bb2:                                           ; preds = %if.end
  %settings = getelementptr inbounds %"class.icu_75::RuleBasedCollator", ptr %this1, i32 0, i32 2
  %3 = load ptr, ptr %settings, align 8
  %call3 = call noundef i32 @_ZNK6icu_7517CollationSettings20getAlternateHandlingEv(ptr noundef nonnull align 8 dereferenceable(852) %3)
  store i32 %call3, ptr %retval, align 4
  br label %return

sw.bb4:                                           ; preds = %if.end
  %settings5 = getelementptr inbounds %"class.icu_75::RuleBasedCollator", ptr %this1, i32 0, i32 2
  %4 = load ptr, ptr %settings5, align 8
  %call6 = call noundef i32 @_ZNK6icu_7517CollationSettings12getCaseFirstEv(ptr noundef nonnull align 8 dereferenceable(852) %4)
  store i32 %call6, ptr %retval, align 4
  br label %return

sw.bb7:                                           ; preds = %if.end
  store i32 1024, ptr %option, align 4
  br label %sw.epilog

sw.bb8:                                           ; preds = %if.end
  store i32 1, ptr %option, align 4
  br label %sw.epilog

sw.bb9:                                           ; preds = %if.end
  %settings10 = getelementptr inbounds %"class.icu_75::RuleBasedCollator", ptr %this1, i32 0, i32 2
  %5 = load ptr, ptr %settings10, align 8
  %call11 = call noundef i32 @_ZNK6icu_7517CollationSettings11getStrengthEv(ptr noundef nonnull align 8 dereferenceable(852) %5)
  store i32 %call11, ptr %retval, align 4
  br label %return

sw.bb12:                                          ; preds = %if.end
  store i32 16, ptr %retval, align 4
  br label %return

sw.bb13:                                          ; preds = %if.end
  store i32 2, ptr %option, align 4
  br label %sw.epilog

sw.default:                                       ; preds = %if.end
  %6 = load ptr, ptr %errorCode.addr, align 8
  store i32 1, ptr %6, align 4
  store i32 -1, ptr %retval, align 4
  br label %return

sw.epilog:                                        ; preds = %sw.bb13, %sw.bb8, %sw.bb7, %sw.bb
  %settings14 = getelementptr inbounds %"class.icu_75::RuleBasedCollator", ptr %this1, i32 0, i32 2
  %7 = load ptr, ptr %settings14, align 8
  %options = getelementptr inbounds %"struct.icu_75::CollationSettings", ptr %7, i32 0, i32 1
  %8 = load i32, ptr %options, align 8
  %9 = load i32, ptr %option, align 4
  %and = and i32 %8, %9
  %cmp = icmp eq i32 %and, 0
  %cond = select i1 %cmp, i32 16, i32 17
  store i32 %cond, ptr %retval, align 4
  br label %return

return:                                           ; preds = %sw.epilog, %sw.default, %sw.bb12, %sw.bb9, %sw.bb4, %sw.bb2, %if.then
  %10 = load i32, ptr %retval, align 4
  ret i32 %10
}