; Function Attrs: mustprogress nofree norecurse nosync nounwind willreturn memory(read, argmem: readwrite, inaccessiblemem: none) uwtable
define noundef i32 @_ZNK6icu_7517RuleBasedCollator12getAttributeE13UColAttributeR10UErrorCode(ptr nocapture noundef nonnull readonly align 8 dereferenceable(272) %this, i32 noundef %attr, ptr nocapture noundef nonnull align 4 dereferenceable(4) %errorCode) unnamed_addr #8 align 2 {
entry:
  %0 = load i32, ptr %errorCode, align 4
  %cmp.i = icmp slt i32 %0, 1
  br i1 %cmp.i, label %if.end, label %return

if.end:                                           ; preds = %entry
  switch i32 %attr, label %sw.default [
    i32 0, label %sw.epilog
    i32 1, label %sw.bb2
    i32 2, label %sw.bb4
    i32 3, label %sw.bb7
    i32 4, label %sw.bb8
    i32 5, label %sw.bb9
    i32 6, label %return
    i32 7, label %sw.bb13
  ]

sw.bb2:                                           ; preds = %if.end
  %settings = getelementptr inbounds i8, ptr %this, i64 16
  %1 = load ptr, ptr %settings, align 8
  %options.i = getelementptr inbounds i8, ptr %1, i64 24
  %2 = load i32, ptr %options.i, align 8
  %and.i = and i32 %2, 12
  %cmp.i2 = icmp eq i32 %and.i, 0
  %cond.i = select i1 %cmp.i2, i32 21, i32 20
  br label %return

sw.bb4:                                           ; preds = %if.end
  %settings5 = getelementptr inbounds i8, ptr %this, i64 16
  %3 = load ptr, ptr %settings5, align 8
  %options.i3 = getelementptr inbounds i8, ptr %3, i64 24
  %4 = load i32, ptr %options.i3, align 8
  %and.i4 = and i32 %4, 768
  %cmp.i5 = icmp eq i32 %and.i4, 0
  %cmp2.i = icmp eq i32 %and.i4, 512
  %cond.i6 = select i1 %cmp2.i, i32 24, i32 25
  %cond3.i = select i1 %cmp.i5, i32 16, i32 %cond.i6
  br label %return

sw.bb7:                                           ; preds = %if.end
  br label %sw.epilog

sw.bb8:                                           ; preds = %if.end
  br label %sw.epilog

sw.bb9:                                           ; preds = %if.end
  %settings10 = getelementptr inbounds i8, ptr %this, i64 16
  %5 = load ptr, ptr %settings10, align 8
  %options.i7 = getelementptr inbounds i8, ptr %5, i64 24
  %6 = load i32, ptr %options.i7, align 8
  %shr.i.i = ashr i32 %6, 12
  br label %return

sw.bb13:                                          ; preds = %if.end
  br label %sw.epilog

sw.default:                                       ; preds = %if.end
  store i32 1, ptr %errorCode, align 4
  br label %return

sw.epilog:                                        ; preds = %if.end, %sw.bb13, %sw.bb8, %sw.bb7
  %option.0 = phi i32 [ 2, %sw.bb13 ], [ 1, %sw.bb8 ], [ 1024, %sw.bb7 ], [ 2048, %if.end ]
  %settings14 = getelementptr inbounds i8, ptr %this, i64 16
  %7 = load ptr, ptr %settings14, align 8
  %options = getelementptr inbounds i8, ptr %7, i64 24
  %8 = load i32, ptr %options, align 8
  %and = and i32 %8, %option.0
  %cmp = icmp eq i32 %and, 0
  %cond = select i1 %cmp, i32 16, i32 17
  br label %return

return:                                           ; preds = %if.end, %entry, %sw.epilog, %sw.default, %sw.bb9, %sw.bb4, %sw.bb2
  %retval.0 = phi i32 [ -1, %sw.default ], [ %cond, %sw.epilog ], [ %shr.i.i, %sw.bb9 ], [ %cond3.i, %sw.bb4 ], [ %cond.i, %sw.bb2 ], [ -1, %entry ], [ 16, %if.end ]
  ret i32 %retval.0
}